target datalayout = "e-m:e-p270:32:32-p271:32:32-p272:64:64-i64:64-i128:128-f80:128-n8:16:32:64-S128"
target triple = "x86_64-pc-linux-gnu"

@__const.ossl_pkey_read_generic.input_types = private unnamed_addr constant [2 x ptr] [ptr @.str.1, ptr @.str.2], align 16
@__const.ossl_pkey_read_generic.selections = private unnamed_addr constant [3 x i32] [i32 135, i32 132, i32 134], align 4

; Function Attrs: nounwind sspstrong uwtable
define internal ptr @ossl_pkey_read(ptr noundef %0, ptr noundef %1, i32 noundef %2, i64 noundef %3) #0 {
  %5 = alloca ptr, align 8
  %6 = alloca ptr, align 8
  %7 = alloca i32, align 4
  %8 = alloca i64, align 8
  %9 = alloca ptr, align 8
  %10 = alloca ptr, align 8
  %11 = alloca ptr, align 8
  %12 = alloca i32, align 4
  %13 = alloca i32, align 4
  store ptr %0, ptr %5, align 8, !tbaa !20
  store ptr %1, ptr %6, align 8, !tbaa !22
  store i32 %2, ptr %7, align 4, !tbaa !14
  store i64 %3, ptr %8, align 8, !tbaa !12
  call void @llvm.lifetime.start.p0(i64 8, ptr %9) #19
  %14 = load i64, ptr %8, align 8, !tbaa !12
  %15 = inttoptr i64 %14 to ptr
  store ptr %15, ptr %9, align 8, !tbaa !6
  call void @llvm.lifetime.start.p0(i64 8, ptr %10) #19
  call void @llvm.lifetime.start.p0(i64 8, ptr %11) #19
  store ptr null, ptr %11, align 8, !tbaa !10
  call void @llvm.lifetime.start.p0(i64 4, ptr %12) #19
  store i32 0, ptr %12, align 4, !tbaa !14
  call void @llvm.lifetime.start.p0(i64 4, ptr %13) #19
  %16 = load ptr, ptr %6, align 8, !tbaa !22
  %17 = load i32, ptr %7, align 4, !tbaa !14
  %18 = call ptr @OSSL_DECODER_CTX_new_for_pkey(ptr noundef %11, ptr noundef %16, ptr noundef null, ptr noundef null, i32 noundef %17, ptr noundef null, ptr noundef null)
  store ptr %18, ptr %10, align 8, !tbaa !27
  %19 = load ptr, ptr %10, align 8, !tbaa !27
  %20 = icmp ne ptr %19, null
  br i1 %20, label %22, label %21

21:                                               ; preds = %4
  br label %56

22:                                               ; preds = %4
  %23 = load ptr, ptr %10, align 8, !tbaa !27
  %24 = load ptr, ptr %9, align 8, !tbaa !6
  %25 = call i32 @OSSL_DECODER_CTX_set_pem_password_cb(ptr noundef %23, ptr noundef @ossl_pem_passwd_cb, ptr noundef %24)
  %26 = icmp ne i32 %25, 1
  br i1 %26, label %27, label %28

27:                                               ; preds = %22
  br label %56

28:                                               ; preds = %22
  br label %29

29:                                               ; preds = %53, %28
  br label %30

30:                                               ; preds = %29
  %31 = load ptr, ptr %10, align 8, !tbaa !27
  %32 = load ptr, ptr %5, align 8, !tbaa !20
  %33 = call i32 @OSSL_DECODER_from_bio(ptr noundef %31, ptr noundef %32)
  %34 = icmp eq i32 %33, 1
  br i1 %34, label %35, label %36

35:                                               ; preds = %30
  br label %56

36:                                               ; preds = %30
  %37 = load ptr, ptr %5, align 8, !tbaa !20
  %38 = call i64 @BIO_ctrl(ptr noundef %37, i32 noundef 2, i64 noundef 0, ptr noundef null)
  %39 = trunc i64 %38 to i32
  %40 = icmp ne i32 %39, 0
  br i1 %40, label %41, label %42

41:                                               ; preds = %36
  br label %55

42:                                               ; preds = %36
  %43 = load ptr, ptr %5, align 8, !tbaa !20
  %44 = call i64 @BIO_ctrl(ptr noundef %43, i32 noundef 133, i64 noundef 0, ptr noundef null)
  %45 = trunc i64 %44 to i32
  store i32 %45, ptr %13, align 4, !tbaa !14
  %46 = load i32, ptr %13, align 4, !tbaa !14
  %47 = icmp slt i32 %46, 0
  br i1 %47, label %52, label %48

48:                                               ; preds = %42
  %49 = load i32, ptr %13, align 4, !tbaa !14
  %50 = load i32, ptr %12, align 4, !tbaa !14
  %51 = icmp sle i32 %49, %50
  br i1 %51, label %52, label %53

52:                                               ; preds = %48, %42
  br label %55

53:                                               ; preds = %48
  call void @ossl_clear_error()
  %54 = load i32, ptr %13, align 4, !tbaa !14
  store i32 %54, ptr %12, align 4, !tbaa !14
  br label %29

55:                                               ; preds = %52, %41
  br label %56

56:                                               ; preds = %55, %35, %27, %21
  br label %57

57:                                               ; preds = %56
  %58 = load ptr, ptr %5, align 8, !tbaa !20
  %59 = call i64 @BIO_ctrl(ptr noundef %58, i32 noundef 1, i64 noundef 0, ptr noundef null)
  call void @ossl_clear_error()
  br label %60

60:                                               ; preds = %57
  br label %61

61:                                               ; preds = %60
  %62 = load ptr, ptr %10, align 8, !tbaa !27
  call void @OSSL_DECODER_CTX_free(ptr noundef %62)
  %63 = load ptr, ptr %11, align 8, !tbaa !10
  call void @llvm.lifetime.end.p0(i64 4, ptr %13) #19
  call void @llvm.lifetime.end.p0(i64 4, ptr %12) #19
  call void @llvm.lifetime.end.p0(i64 8, ptr %11) #19
  call void @llvm.lifetime.end.p0(i64 8, ptr %10) #19
  call void @llvm.lifetime.end.p0(i64 8, ptr %9) #19
  ret ptr %63
}

; Function Attrs: nounwind sspstrong uwtable
define ptr @ossl_pkey_read_generic(ptr noundef %0, i64 noundef %1) #0 {
  %3 = alloca ptr, align 8
  %4 = alloca i64, align 8
  %5 = alloca ptr, align 8
  %6 = alloca [2 x ptr], align 16
  %7 = alloca i32, align 4
  %8 = alloca [3 x i32], align 4
  %9 = alloca i32, align 4
  %10 = alloca i32, align 4
  %11 = alloca i32, align 4
  store ptr %0, ptr %3, align 8, !tbaa !20
  store i64 %1, ptr %4, align 8, !tbaa !12
  call void @llvm.lifetime.start.p0(i64 8, ptr %5) #19
  store ptr null, ptr %5, align 8, !tbaa !10
  call void @llvm.lifetime.start.p0(i64 16, ptr %6) #19
  call void @llvm.memcpy.p0.p0.i64(ptr align 16 %6, ptr align 16 @__const.ossl_pkey_read_generic.input_types, i64 16, i1 false)
  call void @llvm.lifetime.start.p0(i64 4, ptr %7) #19
  store i32 2, ptr %7, align 4, !tbaa !14
  call void @llvm.lifetime.start.p0(i64 12, ptr %8) #19
  call void @llvm.memcpy.p0.p0.i64(ptr align 4 %8, ptr align 4 @__const.ossl_pkey_read_generic.selections, i64 12, i1 false)
  call void @llvm.lifetime.start.p0(i64 4, ptr %9) #19
  store i32 3, ptr %9, align 4, !tbaa !14
  call void @llvm.lifetime.start.p0(i64 4, ptr %10) #19
  call void @llvm.lifetime.start.p0(i64 4, ptr %11) #19
  store i32 0, ptr %10, align 4, !tbaa !14
  br label %12

12:                                               ; preds = %41, %2
  %13 = load i32, ptr %10, align 4, !tbaa !14
  %14 = load i32, ptr %7, align 4, !tbaa !14
  %15 = icmp slt i32 %13, %14
  br i1 %15, label %16, label %44

16:                                               ; preds = %12
  store i32 0, ptr %11, align 4, !tbaa !14
  br label %17

17:                                               ; preds = %37, %16
  %18 = load i32, ptr %11, align 4, !tbaa !14
  %19 = load i32, ptr %9, align 4, !tbaa !14
  %20 = icmp slt i32 %18, %19
  br i1 %20, label %21, label %40

21:                                               ; preds = %17
  %22 = load ptr, ptr %3, align 8, !tbaa !20
  %23 = load i32, ptr %10, align 4, !tbaa !14
  %24 = sext i32 %23 to i64
  %25 = getelementptr inbounds [2 x ptr], ptr %6, i64 0, i64 %24
  %26 = load ptr, ptr %25, align 8, !tbaa !22
  %27 = load i32, ptr %11, align 4, !tbaa !14
  %28 = sext i32 %27 to i64
  %29 = getelementptr inbounds [3 x i32], ptr %8, i64 0, i64 %28
  %30 = load i32, ptr %29, align 4, !tbaa !14
  %31 = load i64, ptr %4, align 8, !tbaa !12
  %32 = call ptr @ossl_pkey_read(ptr noundef %22, ptr noundef %26, i32 noundef %30, i64 noundef %31)
  store ptr %32, ptr %5, align 8, !tbaa !10
  %33 = load ptr, ptr %5, align 8, !tbaa !10
  %34 = icmp ne ptr %33, null
  br i1 %34, label %35, label %36

35:                                               ; preds = %21
  br label %45

36:                                               ; preds = %21
  br label %37

37:                                               ; preds = %36
  %38 = load i32, ptr %11, align 4, !tbaa !14
  %39 = add nsw i32 %38, 1
  store i32 %39, ptr %11, align 4, !tbaa !14
  br label %17, !llvm.loop !24

40:                                               ; preds = %17
  br label %41

41:                                               ; preds = %40
  %42 = load i32, ptr %10, align 4, !tbaa !14
  %43 = add nsw i32 %42, 1
  store i32 %43, ptr %10, align 4, !tbaa !14
  br label %12, !llvm.loop !26

44:                                               ; preds = %12
  br label %45

45:                                               ; preds = %44, %35
  %46 = load ptr, ptr %5, align 8, !tbaa !10
  call void @llvm.lifetime.end.p0(i64 4, ptr %11) #19
  call void @llvm.lifetime.end.p0(i64 4, ptr %10) #19
  call void @llvm.lifetime.end.p0(i64 4, ptr %9) #19
  call void @llvm.lifetime.end.p0(i64 12, ptr %8) #19
  call void @llvm.lifetime.end.p0(i64 4, ptr %7) #19
  call void @llvm.lifetime.end.p0(i64 16, ptr %6) #19
  call void @llvm.lifetime.end.p0(i64 8, ptr %5) #19
  ret ptr %46
}